target datalayout = "e-m:e-p270:32:32-p271:32:32-p272:64:64-i64:64-i128:128-f80:128-n8:16:32:64-S128"
target triple = "x86_64-pc-linux-gnu"

@mainctx = internal global ptr null, align 8
@.str.28 = private unnamed_addr constant [34 x i8] c"../openssl/test/evp_extra_test2.c\00", align 1
@.str.57 = private unnamed_addr constant [2 x i8] c"1\00", align 1
@.str.114 = private unnamed_addr constant [4 x i8] c"DSA\00", align 1
@.str.119 = private unnamed_addr constant [9 x i8] c"expected\00", align 1
@.str.127 = private unnamed_addr constant [59 x i8] c"gen_ctx = EVP_PKEY_CTX_new_from_name(mainctx, \22DSA\22, NULL)\00", align 1
@.str.128 = private unnamed_addr constant [32 x i8] c"EVP_PKEY_fromdata_init(gen_ctx)\00", align 1
@.str.129 = private unnamed_addr constant [64 x i8] c"EVP_PKEY_fromdata(gen_ctx, &pkey, EVP_PKEY_KEYPAIR, key_params)\00", align 1
@.str.130 = private unnamed_addr constant [60 x i8] c"check_ctx = EVP_PKEY_CTX_new_from_pkey(mainctx, pkey, NULL)\00", align 1
@.str.131 = private unnamed_addr constant [32 x i8] c"EVP_PKEY_param_check(check_ctx)\00", align 1

; Function Attrs: nounwind uwtable
define internal i32 @do_check_params(ptr noundef %0, i32 noundef %1) #0 {
  %3 = alloca ptr, align 8
  %4 = alloca i32, align 4
  %5 = alloca ptr, align 8
  %6 = alloca ptr, align 8
  %7 = alloca ptr, align 8
  %8 = alloca i32, align 4
  store ptr %0, ptr %3, align 8, !tbaa !35
  store i32 %1, ptr %4, align 4, !tbaa !11
  call void @llvm.lifetime.start.p0(i64 8, ptr %5) #7
  store ptr null, ptr %5, align 8, !tbaa !29
  call void @llvm.lifetime.start.p0(i64 8, ptr %6) #7
  store ptr null, ptr %6, align 8, !tbaa !29
  call void @llvm.lifetime.start.p0(i64 8, ptr %7) #7
  store ptr null, ptr %7, align 8, !tbaa !13
  call void @llvm.lifetime.start.p0(i64 4, ptr %8) #7
  %9 = load ptr, ptr @mainctx, align 8, !tbaa !4
  %10 = call ptr @EVP_PKEY_CTX_new_from_name(ptr noundef %9, ptr noundef @.str.114, ptr noundef null)
  store ptr %10, ptr %5, align 8, !tbaa !29
  %11 = call i32 @test_ptr(ptr noundef @.str.28, i32 noundef 1038, ptr noundef @.str.127, ptr noundef %10)
  %12 = icmp ne i32 %11, 0
  br i1 %12, label %13, label %36

13:                                               ; preds = %2
  %14 = load ptr, ptr %5, align 8, !tbaa !29
  %15 = call i32 @EVP_PKEY_fromdata_init(ptr noundef %14)
  %16 = call i32 @test_int_eq(ptr noundef @.str.28, i32 noundef 1039, ptr noundef @.str.128, ptr noundef @.str.57, i32 noundef %15, i32 noundef 1)
  %17 = icmp ne i32 %16, 0
  br i1 %17, label %18, label %36

18:                                               ; preds = %13
  %19 = load ptr, ptr %5, align 8, !tbaa !29
  %20 = load ptr, ptr %3, align 8, !tbaa !35
  %21 = call i32 @EVP_PKEY_fromdata(ptr noundef %19, ptr noundef %7, i32 noundef 135, ptr noundef %20)
  %22 = call i32 @test_int_eq(ptr noundef @.str.28, i32 noundef 1041, ptr noundef @.str.129, ptr noundef @.str.57, i32 noundef %21, i32 noundef 1)
  %23 = icmp ne i32 %22, 0
  br i1 %23, label %24, label %36

24:                                               ; preds = %18
  %25 = load ptr, ptr @mainctx, align 8, !tbaa !4
  %26 = load ptr, ptr %7, align 8, !tbaa !13
  %27 = call ptr @EVP_PKEY_CTX_new_from_pkey(ptr noundef %25, ptr noundef %26, ptr noundef null)
  store ptr %27, ptr %6, align 8, !tbaa !29
  %28 = call i32 @test_ptr(ptr noundef @.str.28, i32 noundef 1043, ptr noundef @.str.130, ptr noundef %27)
  %29 = icmp ne i32 %28, 0
  br i1 %29, label %30, label %36

30:                                               ; preds = %24
  %31 = load ptr, ptr %6, align 8, !tbaa !29
  %32 = call i32 @EVP_PKEY_param_check(ptr noundef %31)
  %33 = load i32, ptr %4, align 4, !tbaa !11
  %34 = call i32 @test_int_eq(ptr noundef @.str.28, i32 noundef 1044, ptr noundef @.str.131, ptr noundef @.str.119, i32 noundef %32, i32 noundef %33)
  %35 = icmp ne i32 %34, 0
  br label %36

36:                                               ; preds = %30, %24, %18, %13, %2
  %37 = phi i1 [ false, %24 ], [ false, %18 ], [ false, %13 ], [ false, %2 ], [ %35, %30 ]
  %38 = zext i1 %37 to i32
  store i32 %38, ptr %8, align 4, !tbaa !11
  %39 = load ptr, ptr %6, align 8, !tbaa !29
  call void @EVP_PKEY_CTX_free(ptr noundef %39)
  %40 = load ptr, ptr %5, align 8, !tbaa !29
  call void @EVP_PKEY_CTX_free(ptr noundef %40)
  %41 = load ptr, ptr %7, align 8, !tbaa !13
  call void @EVP_PKEY_free(ptr noundef %41)
  %42 = load i32, ptr %8, align 4, !tbaa !11
  call void @llvm.lifetime.end.p0(i64 4, ptr %8) #7
  call void @llvm.lifetime.end.p0(i64 8, ptr %7) #7
  call void @llvm.lifetime.end.p0(i64 8, ptr %6) #7
  call void @llvm.lifetime.end.p0(i64 8, ptr %5) #7
  ret i32 %42
}