; Function Attrs: nounwind uwtable
define internal fastcc range(i32 0, 2) i32 @do_check_params(ptr noundef %0, i32 noundef range(i32 0, 2) %1) unnamed_addr #0 {
  %3 = alloca ptr, align 8
  call void @llvm.lifetime.start.p0(i64 8, ptr nonnull %3) #7
  store ptr null, ptr %3, align 8, !tbaa !26
  %4 = load ptr, ptr @mainctx, align 8, !tbaa !4
  %5 = tail call ptr @EVP_PKEY_CTX_new_from_name(ptr noundef %4, ptr noundef nonnull @.str.114, ptr noundef null) #7
  %6 = tail call i32 @test_ptr(ptr noundef nonnull @.str.28, i32 noundef 1038, ptr noundef nonnull @.str.127, ptr noundef %5) #7
  %.not = icmp eq i32 %6, 0
  br i1 %.not, label %23, label %7

7:                                                ; preds = %2
  %8 = tail call i32 @EVP_PKEY_fromdata_init(ptr noundef %5) #7
  %9 = tail call i32 @test_int_eq(ptr noundef nonnull @.str.28, i32 noundef 1039, ptr noundef nonnull @.str.128, ptr noundef nonnull @.str.57, i32 noundef %8, i32 noundef 1) #7
  %.not7 = icmp eq i32 %9, 0
  br i1 %.not7, label %23, label %10

10:                                               ; preds = %7
  %11 = call i32 @EVP_PKEY_fromdata(ptr noundef %5, ptr noundef nonnull %3, i32 noundef 135, ptr noundef %0) #7
  %12 = call i32 @test_int_eq(ptr noundef nonnull @.str.28, i32 noundef 1041, ptr noundef nonnull @.str.129, ptr noundef nonnull @.str.57, i32 noundef %11, i32 noundef 1) #7
  %.not8 = icmp eq i32 %12, 0
  br i1 %.not8, label %23, label %13

13:                                               ; preds = %10
  %14 = load ptr, ptr @mainctx, align 8, !tbaa !4
  %15 = load ptr, ptr %3, align 8, !tbaa !26
  %16 = call ptr @EVP_PKEY_CTX_new_from_pkey(ptr noundef %14, ptr noundef %15, ptr noundef null) #7
  %17 = call i32 @test_ptr(ptr noundef nonnull @.str.28, i32 noundef 1043, ptr noundef nonnull @.str.130, ptr noundef %16) #7
  %.not9 = icmp eq i32 %17, 0
  br i1 %.not9, label %23, label %18

18:                                               ; preds = %13
  %19 = call i32 @EVP_PKEY_param_check(ptr noundef %16) #7
  %20 = call i32 @test_int_eq(ptr noundef nonnull @.str.28, i32 noundef 1044, ptr noundef nonnull @.str.131, ptr noundef nonnull @.str.119, i32 noundef %19, i32 noundef %1) #7
  %21 = icmp ne i32 %20, 0
  %22 = zext i1 %21 to i32
  br label %23

23:                                               ; preds = %18, %13, %10, %7, %2
  %.0 = phi ptr [ %16, %18 ], [ %16, %13 ], [ null, %10 ], [ null, %7 ], [ null, %2 ]
  %24 = phi i32 [ %22, %18 ], [ 0, %13 ], [ 0, %10 ], [ 0, %7 ], [ 0, %2 ]
  call void @EVP_PKEY_CTX_free(ptr noundef %.0) #7
  call void @EVP_PKEY_CTX_free(ptr noundef %5) #7
  %25 = load ptr, ptr %3, align 8, !tbaa !26
  call void @EVP_PKEY_free(ptr noundef %25) #7
  call void @llvm.lifetime.end.p0(i64 8, ptr nonnull %3) #7
  ret i32 %24
}